target datalayout = "e-m:e-p270:32:32-p271:32:32-p272:64:64-i64:64-i128:128-f80:128-n8:16:32:64-S128"
target triple = "x86_64-unknown-linux-gnu"

%struct.BlockCopyCallState = type { ptr, i64, i64, i32, i64, i8, ptr, ptr, ptr, i8, %struct.QemuCoSleep, i8, %struct.anon.3, i8, i32 }
%struct.QemuCoSleep = type { ptr }
%struct.anon.3 = type { ptr, ptr }

@.str.1 = private unnamed_addr constant [27 x i8] c"../qemu/block/block-copy.c\00", align 1
@__func__.block_copy_call_free = private unnamed_addr constant [21 x i8] c"block_copy_call_free\00", align 1
@.str.4 = private unnamed_addr constant [36 x i8] c"qatomic_read(&call_state->finished)\00", align 1
@__PRETTY_FUNCTION__.block_copy_call_free = private unnamed_addr constant [48 x i8] c"void block_copy_call_free(BlockCopyCallState *)\00", align 1

; Function Attrs: nounwind sspstrong uwtable
define dso_local void @block_copy_call_free(ptr noundef %call_state) #0 {
entry:
  %call_state.addr = alloca ptr, align 8
  %tmp = alloca i8, align 1
  %atomic-temp = alloca i8, align 1
  store ptr %call_state, ptr %call_state.addr, align 8
  %0 = load ptr, ptr %call_state.addr, align 8
  %tobool = icmp ne ptr %0, null
  br i1 %tobool, label %if.end, label %if.then

if.then:                                          ; preds = %entry
  br label %return

if.end:                                           ; preds = %entry
  br label %while.cond

while.cond:                                       ; preds = %do.end, %if.end
  br i1 false, label %while.body, label %while.end

while.body:                                       ; preds = %while.cond
  br label %do.body

do.body:                                          ; preds = %while.body
  call void @g_assertion_message_expr(ptr noundef null, ptr noundef @.str.1, i32 noundef 975, ptr noundef @__func__.block_copy_call_free, ptr noundef null) #10
  unreachable

do.end:                                           ; No predecessors!
  br label %while.cond

while.end:                                        ; preds = %while.cond
  %1 = load ptr, ptr %call_state.addr, align 8
  %finished = getelementptr inbounds %struct.BlockCopyCallState, ptr %1, i32 0, i32 9
  %2 = load atomic i8, ptr %finished monotonic, align 8
  store i8 %2, ptr %atomic-temp, align 1
  %3 = load i8, ptr %atomic-temp, align 1
  %tobool1 = trunc i8 %3 to i1
  %frombool = zext i1 %tobool1 to i8
  store i8 %frombool, ptr %tmp, align 1
  %4 = load i8, ptr %tmp, align 1
  %tobool2 = trunc i8 %4 to i1
  br i1 %tobool2, label %if.then3, label %if.else

if.then3:                                         ; preds = %while.end
  br label %if.end4

if.else:                                          ; preds = %while.end
  call void @__assert_fail(ptr noundef @.str.4, ptr noundef @.str.1, i32 noundef 975, ptr noundef @__PRETTY_FUNCTION__.block_copy_call_free) #8
  unreachable

if.end4:                                          ; preds = %if.then3
  %5 = load ptr, ptr %call_state.addr, align 8
  call void @g_free(ptr noundef %5)
  br label %return

return:                                           ; preds = %if.end4, %if.then
  ret void
}