; Function Attrs: nounwind sspstrong uwtable
define dso_local void @block_copy_call_free(ptr noundef %call_state) local_unnamed_addr #0 {
entry:
  %tobool.not = icmp eq ptr %call_state, null
  br i1 %tobool.not, label %return, label %while.end

while.end:                                        ; preds = %entry
  %finished = getelementptr inbounds nuw i8, ptr %call_state, i64 72
  %0 = load atomic i8, ptr %finished monotonic, align 8
  %tobool1 = trunc i8 %0 to i1
  br i1 %tobool1, label %if.end4, label %if.else

if.else:                                          ; preds = %while.end
  tail call void @__assert_fail(ptr noundef nonnull @.str.4, ptr noundef nonnull @.str.1, i32 noundef 975, ptr noundef nonnull @__PRETTY_FUNCTION__.block_copy_call_free) #15
  unreachable

if.end4:                                          ; preds = %while.end
  tail call void @g_free(ptr noundef nonnull %call_state) #14
  br label %return

return:                                           ; preds = %entry, %if.end4
  ret void
}